(dp0
Vresponse
p1
(dp2
VtermsofService
p3
Vhttp://www.wunderground.com/weather/api/d/terms.html
p4
sVversion
p5
V0.1
p6
sVfeatures
p7
(dp8
Vforecast
p9
I1
sssVforecast
p10
(dp11
Vtxt_forecast
p12
(dp13
Vdate
p14
V3:50 PM PDT
p15
sVforecastday
p16
(lp17
(dp18
Vtitle
p19
VMonday
p20
sVicon_url
p21
Vhttp://icons.wxug.com/i/c/k/partlycloudy.gif
p22
sVfcttext_metric
p23
VPartly cloudy. Low -6C.
p24
sVperiod
p25
I0
sVpop
p26
V0
p27
sVfcttext
p28
VPartly cloudy. Lows overnight in the low 20s.
p29
sVicon
p30
Vpartlycloudy
p31
sa(dp32
Vtitle
p33
VMonday Night
p34
sVicon_url
p35
Vhttp://icons.wxug.com/i/c/k/nt_partlycloudy.gif
p36
sVfcttext_metric
p37
VSome clouds this evening will give way to mainly clear skies overnight. Low -6C. Winds E at 10 to 15 km/h.
p38
sVperiod
p39
I1
sVpop
p40
V0
p41
sVfcttext
p42
VSome clouds this evening will give way to mainly clear skies overnight. Low 22F. Winds light and variable.
p43
sVicon
p44
Vnt_partlycloudy
p45
sa(dp46
Vtitle
p47
VTuesday
p48
sVicon_url
p49
Vhttp://icons.wxug.com/i/c/k/partlycloudy.gif
p50
sVfcttext_metric
p51
VPartly cloudy skies. High 9C. Winds SW at 10 to 15 km/h.
p52
sVperiod
p53
I2
sVpop
p54
V0
p55
sVfcttext
p56
VIntervals of clouds and sunshine. High 49F. Winds SW at 5 to 10 mph.
p57
sVicon
p58
Vpartlycloudy
p59
sa(dp60
Vtitle
p61
VTuesday Night
p62
sVicon_url
p63
Vhttp://icons.wxug.com/i/c/k/nt_mostlycloudy.gif
p64
sVfcttext_metric
p65
VPartly cloudy skies early will become overcast later during the night. Low -3C. Winds light and variable.
p66
sVperiod
p67
I3
sVpop
p68
V10
p69
sVfcttext
p70
VPartly cloudy skies in the evening, then becoming cloudy overnight. Low 27F. Winds light and variable.
p71
sVicon
p72
Vnt_mostlycloudy
p73
sa(dp74
Vtitle
p75
VWednesday
p76
sVicon_url
p77
Vhttp://icons.wxug.com/i/c/k/mostlycloudy.gif
p78
sVfcttext_metric
p79
VOvercast. High 9C. Winds SSW at 10 to 15 km/h.
p80
sVperiod
p81
I4
sVpop
p82
V0
p83
sVfcttext
p84
VConsiderable cloudiness. High 48F. Winds SSW at 5 to 10 mph.
p85
sVicon
p86
Vmostlycloudy
p87
sa(dp88
Vtitle
p89
VWednesday Night
p90
sVicon_url
p91
Vhttp://icons.wxug.com/i/c/k/nt_cloudy.gif
p92
sVfcttext_metric
p93
VCloudy skies. Low -1C. Winds light and variable.
p94
sVperiod
p95
I5
sVpop
p96
V10
p97
sVfcttext
p98
VCloudy skies. Low near 30F. Winds light and variable.
p99
sVicon
p100
Vnt_cloudy
p101
sa(dp102
Vtitle
p103
VThursday
p104
sVicon_url
p105
Vhttp://icons.wxug.com/i/c/k/cloudy.gif
p106
sVfcttext_metric
p107
VCloudy. High 8C. Winds SSW at 15 to 25 km/h.
p108
sVperiod
p109
I6
sVpop
p110
V10
p111
sVfcttext
p112
VCloudy. High 48F. Winds SSW at 10 to 15 mph.
p113
sVicon
p114
Vcloudy
p115
sa(dp116
Vtitle
p117
VThursday Night
p118
sVicon_url
p119
Vhttp://icons.wxug.com/i/c/k/nt_snow.gif
p120
sVfcttext_metric
p121
VCloudy skies early followed by a mixture of light rain and snow overnight. Low 1C. Winds SSW at 10 to 15 km/h. Chance of precip 90%.
p122
sVperiod
p123
I7
sVpop
p124
V90
p125
sVfcttext
p126
VCloudy skies early followed by a mixture of light rain and snow overnight. Low 34F. Winds SSW at 5 to 10 mph. Chance of precip 90%.
p127
sVicon
p128
Vnt_snow
p129
sassVsimpleforecast
p130
(dp131
Vforecastday
p132
(lp133
(dp134
Vavehumidity
p135
I75
sVmaxhumidity
p136
I0
sVavewind
p137
(dp138
Vkph
p139
I0
sVdegrees
p140
I0
sVdir
p141
V
p142
sVmph
p143
I0
ssVicon_url
p144
Vhttp://icons.wxug.com/i/c/k/partlycloudy.gif
p145
sVsnow_allday
p146
(dp147
Vcm
p148
F0.0
sVin
p149
F0.0
ssVmaxwind
p150
(dp151
Vkph
p152
I0
sVdegrees
p153
I0
sVdir
p154
g142
sVmph
p155
I0
ssVminhumidity
p156
I0
sVperiod
p157
I1
sVpop
p158
I0
sVskyicon
p159
g142
sVhigh
p160
(dp161
Vfahrenheit
p162
g142
sVcelsius
p163
g142
ssVqpf_night
p164
(dp165
Vmm
p166
I0
sVin
p167
F0.0
ssVqpf_allday
p168
(dp169
Vmm
p170
I0
sVin
p171
F0.0
ssVlow
p172
(dp173
Vfahrenheit
p174
V22
p175
sVcelsius
p176
V-6
p177
ssVsnow_night
p178
(dp179
Vcm
p180
F0.0
sVin
p181
F0.0
ssVdate
p182
(dp183
Vtz_short
p184
VPDT
p185
sVweekday_short
p186
VMon
p187
sVisdst
p188
V1
p189
sVmonthname
p190
VApril
p191
sVhour
p192
I19
sVmin
p193
V00
p194
sVampm
p195
VPM
p196
sVtz_long
p197
VAmerica/Los_Angeles
p198
sVmonth
p199
I4
sVepoch
p200
V1522720800
p201
sVsec
p202
I0
sVweekday
p203
VMonday
p204
sVpretty
p205
V7:00 PM PDT on April 02, 2018
p206
sVyear
p207
I2018
sVyday
p208
I91
sVday
p209
I2
sVmonthname_short
p210
VApr
p211
ssVsnow_day
p212
(dp213
Vcm
p214
NsVin
p215
NssVqpf_day
p216
(dp217
Vmm
p218
NsVin
p219
NssVconditions
p220
VPartly Cloudy
p221
sVicon
p222
Vpartlycloudy
p223
sa(dp224
Vavehumidity
p225
I55
sVmaxhumidity
p226
I0
sVavewind
p227
(dp228
Vkph
p229
I14
sVdegrees
p230
I218
sVdir
p231
VSW
p232
sVmph
p233
I9
ssVicon_url
p234
Vhttp://icons.wxug.com/i/c/k/partlycloudy.gif
p235
sVsnow_allday
p236
(dp237
Vcm
p238
F0.0
sVin
p239
F0.0
ssVmaxwind
p240
(dp241
Vkph
p242
I16
sVdegrees
p243
I218
sVdir
p244
VSW
p245
sVmph
p246
I10
ssVminhumidity
p247
I0
sVperiod
p248
I2
sVpop
p249
I0
sVskyicon
p250
g142
sVhigh
p251
(dp252
Vfahrenheit
p253
V49
p254
sVcelsius
p255
V9
p256
ssVqpf_night
p257
(dp258
Vmm
p259
I0
sVin
p260
F0.0
ssVqpf_allday
p261
(dp262
Vmm
p263
I0
sVin
p264
F0.0
ssVlow
p265
(dp266
Vfahrenheit
p267
V27
p268
sVcelsius
p269
V-3
p270
ssVsnow_night
p271
(dp272
Vcm
p273
F0.0
sVin
p274
F0.0
ssVdate
p275
(dp276
Vtz_short
p277
VPDT
p278
sVweekday_short
p279
VTue
p280
sVisdst
p281
V1
p282
sVmonthname
p283
VApril
p284
sVhour
p285
I19
sVmin
p286
V00
p287
sVampm
p288
VPM
p289
sVtz_long
p290
VAmerica/Los_Angeles
p291
sVmonth
p292
I4
sVepoch
p293
V1522807200
p294
sVsec
p295
I0
sVweekday
p296
VTuesday
p297
sVpretty
p298
V7:00 PM PDT on April 03, 2018
p299
sVyear
p300
I2018
sVyday
p301
I92
sVday
p302
I3
sVmonthname_short
p303
VApr
p304
ssVsnow_day
p305
(dp306
Vcm
p307
F0.0
sVin
p308
F0.0
ssVqpf_day
p309
(dp310
Vmm
p311
I0
sVin
p312
F0.0
ssVconditions
p313
VPartly Cloudy
p314
sVicon
p315
Vpartlycloudy
p316
sa(dp317
Vavehumidity
p318
I53
sVmaxhumidity
p319
I0
sVavewind
p320
(dp321
Vkph
p322
I14
sVdegrees
p323
I199
sVdir
p324
VSSW
p325
sVmph
p326
I9
ssVicon_url
p327
Vhttp://icons.wxug.com/i/c/k/mostlycloudy.gif
p328
sVsnow_allday
p329
(dp330
Vcm
p331
F0.0
sVin
p332
F0.0
ssVmaxwind
p333
(dp334
Vkph
p335
I16
sVdegrees
p336
I199
sVdir
p337
VSSW
p338
sVmph
p339
I10
ssVminhumidity
p340
I0
sVperiod
p341
I3
sVpop
p342
I0
sVskyicon
p343
g142
sVhigh
p344
(dp345
Vfahrenheit
p346
V48
p347
sVcelsius
p348
V9
p349
ssVqpf_night
p350
(dp351
Vmm
p352
I0
sVin
p353
F0.0
ssVqpf_allday
p354
(dp355
Vmm
p356
I0
sVin
p357
F0.0
ssVlow
p358
(dp359
Vfahrenheit
p360
V30
p361
sVcelsius
p362
V-1
p363
ssVsnow_night
p364
(dp365
Vcm
p366
F0.0
sVin
p367
F0.0
ssVdate
p368
(dp369
Vtz_short
p370
VPDT
p371
sVweekday_short
p372
VWed
p373
sVisdst
p374
V1
p375
sVmonthname
p376
VApril
p377
sVhour
p378
I19
sVmin
p379
V00
p380
sVampm
p381
VPM
p382
sVtz_long
p383
VAmerica/Los_Angeles
p384
sVmonth
p385
I4
sVepoch
p386
V1522893600
p387
sVsec
p388
I0
sVweekday
p389
VWednesday
p390
sVpretty
p391
V7:00 PM PDT on April 04, 2018
p392
sVyear
p393
I2018
sVyday
p394
I93
sVday
p395
I4
sVmonthname_short
p396
VApr
p397
ssVsnow_day
p398
(dp399
Vcm
p400
F0.0
sVin
p401
F0.0
ssVqpf_day
p402
(dp403
Vmm
p404
I0
sVin
p405
F0.0
ssVconditions
p406
VMostly Cloudy
p407
sVicon
p408
Vmostlycloudy
p409
sa(dp410
Vavehumidity
p411
I50
sVmaxhumidity
p412
I0
sVavewind
p413
(dp414
Vkph
p415
I18
sVdegrees
p416
I208
sVdir
p417
VSSW
p418
sVmph
p419
I11
ssVicon_url
p420
Vhttp://icons.wxug.com/i/c/k/cloudy.gif
p421
sVsnow_allday
p422
(dp423
Vcm
p424
F0.0
sVin
p425
F0.0
ssVmaxwind
p426
(dp427
Vkph
p428
I24
sVdegrees
p429
I208
sVdir
p430
VSSW
p431
sVmph
p432
I15
ssVminhumidity
p433
I0
sVperiod
p434
I4
sVpop
p435
I10
sVskyicon
p436
g142
sVhigh
p437
(dp438
Vfahrenheit
p439
V48
p440
sVcelsius
p441
V9
p442
ssVqpf_night
p443
(dp444
Vmm
p445
I2
sVin
p446
F0.09
ssVqpf_allday
p447
(dp448
Vmm
p449
I2
sVin
p450
F0.09
ssVlow
p451
(dp452
Vfahrenheit
p453
V34
p454
sVcelsius
p455
V1
p456
ssVsnow_night
p457
(dp458
Vcm
p459
F0.0
sVin
p460
F0.0
ssVdate
p461
(dp462
Vtz_short
p463
VPDT
p464
sVweekday_short
p465
VThu
p466
sVisdst
p467
V1
p468
sVmonthname
p469
VApril
p470
sVhour
p471
I19
sVmin
p472
V00
p473
sVampm
p474
VPM
p475
sVtz_long
p476
VAmerica/Los_Angeles
p477
sVmonth
p478
I4
sVepoch
p479
V1522980000
p480
sVsec
p481
I0
sVweekday
p482
VThursday
p483
sVpretty
p484
V7:00 PM PDT on April 05, 2018
p485
sVyear
p486
I2018
sVyday
p487
I94
sVday
p488
I5
sVmonthname_short
p489
VApr
p490
ssVsnow_day
p491
(dp492
Vcm
p493
F0.0
sVin
p494
F0.0
ssVqpf_day
p495
(dp496
Vmm
p497
I0
sVin
p498
F0.0
ssVconditions
p499
VOvercast
p500
sVicon
p501
Vcloudy
p502
sasss.