(dp0
I0
ccopy_reg
_reconstructor
p1
(cpandas.core.frame
DataFrame
p2
c__builtin__
object
p3
Ntp4
Rp5
(dp6
S'_metadata'
p7
(lp8
sS'_typ'
p9
S'dataframe'
p10
sS'_data'
p11
g1
(cpandas.core.internals
BlockManager
p12
g3
Ntp13
Rp14
((lp15
cpandas.core.indexes.base
_new_Index
p16
(cpandas.core.indexes.base
Index
p17
(dp18
S'data'
p19
cnumpy.core.multiarray
_reconstruct
p20
(cnumpy
ndarray
p21
(I0
tp22
S'b'
p23
tp24
Rp25
(I1
(I4
tp26
cnumpy
dtype
p27
(S'O8'
p28
I0
I1
tp29
Rp30
(I3
S'|'
p31
NNNI-1
I-1
I63
tp32
bI00
(lp33
S'heavenly'
p34
aS'mtrose'
p35
aS'kirkwood'
p36
aS'northstar'
p37
atp38
bsS'name'
p39
Nstp40
Rp41
ag16
(g17
(dp42
g19
g20
(g21
(I0
tp43
g23
tp44
Rp45
(I1
(I11
tp46
g30
I00
(lp47
S'day'
p48
aS'month'
p49
aS'date'
p50
aS'high_temp'
p51
aS'low_temp'
p52
aS'avg_wind'
p53
aS'max_wind'
p54
aS'snow_day'
p55
aS'snow_night'
p56
aS'all_day_precip'
p57
aS'precip%'
p58
atp59
bsg39
Nstp60
Rp61
a(lp62
g20
(g21
(I0
tp63
g23
tp64
Rp65
(I1
(I4
I11
tp66
g30
I00
(lp67
VMon
p68
aI4
aI2
aV57
p69
aV27
p70
aI1
aI0
aNaF0.0
aF0.0
aI0
aVMon
p71
aI4
aI2
aV64
p72
aV23
p73
aI6
aI16
aNaF0.0
aF0.0
aI0
aVMon
p74
aI4
aI2
aI49
aV22
p75
aI0
aI0
aNaF0.0
aF0.0
aI0
aVMon
p76
aI4
aI2
aV54
p77
aV18
p78
aI0
aI0
aNaF0.0
aF0.0
aI0
atp79
ba(lp80
g16
(g17
(dp81
g19
g20
(g21
(I0
tp82
g23
tp83
Rp84
(I1
(I4
tp85
g30
I00
(lp86
g34
ag35
ag36
ag37
atp87
bsg39
Nstp88
Rp89
a(dp90
S'0.14.1'
p91
(dp92
S'axes'
p93
g15
sS'blocks'
p94
(lp95
(dp96
S'mgr_locs'
p97
c__builtin__
slice
p98
(I0
I4
I1
tp99
Rp100
sS'values'
p101
g65
sasstp102
bsbsI1
g1
(g2
g3
Ntp103
Rp104
(dp105
g7
g8
sg9
g10
sg11
g1
(g12
g3
Ntp106
Rp107
((lp108
g16
(g17
(dp109
g19
g20
(g21
(I0
tp110
g23
tp111
Rp112
(I1
(I4
tp113
g30
I00
(lp114
g34
ag35
ag36
ag37
atp115
bsg39
Nstp116
Rp117
ag16
(g17
(dp118
g19
g20
(g21
(I0
tp119
g23
tp120
Rp121
(I1
(I11
tp122
g30
I00
(lp123
g48
ag49
ag50
ag51
ag52
ag53
ag54
ag55
ag56
ag57
ag58
atp124
bsg39
Nstp125
Rp126
a(lp127
g20
(g21
(I0
tp128
g23
tp129
Rp130
(I1
(I4
I11
tp131
g30
I00
(lp132
VTue
p133
aI4
aI3
aV57
p134
aV32
p135
aI11
aI15
aF0.0
aF0.0
aF0.0
aI0
aVTue
p136
aI4
aI3
aV53
p137
aV28
p138
aI12
aI15
aF0.0
aF0.0
aF0.0
aI0
aVTue
p139
aI4
aI3
aV49
p140
aV27
p141
aI9
aI10
aF0.0
aF0.0
aF0.0
aI0
aVTue
p142
aI4
aI3
aV57
p143
aV26
p144
aI11
aI15
aF0.0
aF0.0
aF0.0
aI0
atp145
ba(lp146
g16
(g17
(dp147
g19
g20
(g21
(I0
tp148
g23
tp149
Rp150
(I1
(I4
tp151
g30
I00
(lp152
g34
ag35
ag36
ag37
atp153
bsg39
Nstp154
Rp155
a(dp156
g91
(dp157
g93
g108
sg94
(lp158
(dp159
g97
g98
(I0
I4
I1
tp160
Rp161
sg101
g130
sasstp162
bsbsI2
g1
(g2
g3
Ntp163
Rp164
(dp165
g7
g8
sg9
g10
sg11
g1
(g12
g3
Ntp166
Rp167
((lp168
g16
(g17
(dp169
g19
g20
(g21
(I0
tp170
g23
tp171
Rp172
(I1
(I4
tp173
g30
I00
(lp174
g34
ag35
ag36
ag37
atp175
bsg39
Nstp176
Rp177
ag16
(g17
(dp178
g19
g20
(g21
(I0
tp179
g23
tp180
Rp181
(I1
(I11
tp182
g30
I00
(lp183
g48
ag49
ag50
ag51
ag52
ag53
ag54
ag55
ag56
ag57
ag58
atp184
bsg39
Nstp185
Rp186
a(lp187
g20
(g21
(I0
tp188
g23
tp189
Rp190
(I1
(I4
I11
tp191
g30
I00
(lp192
VWed
p193
aI4
aI4
aV58
p194
aV35
p195
aI10
aI15
aF0.0
aF0.0
aF0.0
aI0
aVWed
p196
aI4
aI4
aV53
p197
aV35
p198
aI12
aI15
aF0.0
aF0.0
aF0.0
aI0
aVWed
p199
aI4
aI4
aV48
p200
aV30
p201
aI9
aI10
aF0.0
aF0.0
aF0.0
aI0
aVWed
p202
aI4
aI4
aV58
p203
aV31
p204
aI11
aI15
aF0.0
aF0.0
aF0.0
aI0
atp205
ba(lp206
g16
(g17
(dp207
g19
g20
(g21
(I0
tp208
g23
tp209
Rp210
(I1
(I4
tp211
g30
I00
(lp212
g34
ag35
ag36
ag37
atp213
bsg39
Nstp214
Rp215
a(dp216
g91
(dp217
g93
g168
sg94
(lp218
(dp219
g97
g98
(I0
I4
I1
tp220
Rp221
sg101
g190
sasstp222
bsbsI3
g1
(g2
g3
Ntp223
Rp224
(dp225
g7
g8
sg9
g10
sg11
g1
(g12
g3
Ntp226
Rp227
((lp228
g16
(g17
(dp229
g19
g20
(g21
(I0
tp230
g23
tp231
Rp232
(I1
(I4
tp233
g30
I00
(lp234
g34
ag35
ag36
ag37
atp235
bsg39
Nstp236
Rp237
ag16
(g17
(dp238
g19
g20
(g21
(I0
tp239
g23
tp240
Rp241
(I1
(I11
tp242
g30
I00
(lp243
g48
ag49
ag50
ag51
ag52
ag53
ag54
ag55
ag56
ag57
ag58
atp244
bsg39
Nstp245
Rp246
a(lp247
g20
(g21
(I0
tp248
g23
tp249
Rp250
(I1
(I4
I11
tp251
g30
I00
(lp252
VThu
p253
aI4
aI5
aV55
p254
aV37
p255
aI10
aI15
aF0.0
aF0.0
aF0.04
aI10
aVThu
p256
aI4
aI5
aV53
p257
aV35
p258
aI12
aI15
aF0.0
aF0.0
aF0.03
aI10
aVThu
p259
aI4
aI5
aV48
p260
aV34
p261
aI11
aI15
aF0.0
aF0.0
aF0.09
aI10
aVThu
p262
aI4
aI5
aV55
p263
aV33
p264
aI11
aI15
aF0.0
aF0.0
aF0.05
aI0
atp265
ba(lp266
g16
(g17
(dp267
g19
g20
(g21
(I0
tp268
g23
tp269
Rp270
(I1
(I4
tp271
g30
I00
(lp272
g34
ag35
ag36
ag37
atp273
bsg39
Nstp274
Rp275
a(dp276
g91
(dp277
g93
g228
sg94
(lp278
(dp279
g97
g98
(I0
I4
I1
tp280
Rp281
sg101
g250
sasstp282
bsbs.