(dp0
Vresponse
p1
(dp2
VtermsofService
p3
Vhttp://www.wunderground.com/weather/api/d/terms.html
p4
sVversion
p5
V0.1
p6
sVfeatures
p7
(dp8
Vforecast
p9
I1
sssVforecast
p10
(dp11
Vtxt_forecast
p12
(dp13
Vdate
p14
V5:59 PM PDT
p15
sVforecastday
p16
(lp17
(dp18
Vtitle
p19
VThursday
p20
sVicon_url
p21
Vhttp://icons.wxug.com/i/c/k/snow.gif
p22
sVfcttext_metric
p23
VRain and snow. Low 1C.
p24
sVperiod
p25
I0
sVpop
p26
V90
p27
sVfcttext
p28
VMix of rain and snow. Lows overnight in the low 30s.
p29
sVicon
p30
Vsnow
p31
sa(dp32
Vtitle
p33
VThursday Night
p34
sVicon_url
p35
Vhttp://icons.wxug.com/i/c/k/nt_snow.gif
p36
sVfcttext_metric
p37
VRain and snow this evening turning to rain overnight. Low 1C. Winds SSW at 10 to 15 km/h. Chance of precip 90%.
p38
sVperiod
p39
I1
sVpop
p40
V90
p41
sVfcttext
p42
VRain and snow this evening turning to rain overnight. Low 33F. Winds SSW at 5 to 10 mph. Chance of precip 90%.
p43
sVicon
p44
Vnt_snow
p45
sa(dp46
Vtitle
p47
VFriday
p48
sVicon_url
p49
Vhttp://icons.wxug.com/i/c/k/rain.gif
p50
sVfcttext_metric
p51
VRain early...then remaining cloudy with thundershowers developing in the afternoon. High near 5C. Winds SSW at 15 to 25 km/h. Chance of rain 100%. Rainfall near 25mm.
p52
sVperiod
p53
I2
sVpop
p54
V100
p55
sVfcttext
p56
VPeriods of rain. High near 40F. Winds SSW at 10 to 20 mph. Chance of rain 100%. Rainfall possibly over one inch.
p57
sVicon
p58
Vrain
p59
sa(dp60
Vtitle
p61
VFriday Night
p62
sVicon_url
p63
Vhttp://icons.wxug.com/i/c/k/nt_tstorms.gif
p64
sVfcttext_metric
p65
VShowers and thunderstorms. Low 3C. Winds SW at 25 to 40 km/h. Chance of rain 100%. 25 to 50mm of rain expected.
p66
sVperiod
p67
I3
sVpop
p68
V100
p69
sVfcttext
p70
VBecoming windy with showers and thunderstorms likely. Low 37F. Winds SW at 20 to 30 mph. Chance of rain 100%. 1 to 2 inches of rain expected.
p71
sVicon
p72
Vnt_tstorms
p73
sa(dp74
Vtitle
p75
VSaturday
p76
sVicon_url
p77
Vhttp://icons.wxug.com/i/c/k/snow.gif
p78
sVfcttext_metric
p79
VCloudy with a mixture of rain and snow in the morning. Becoming partly cloudy in the afternoon. Morning high of 6C with temps falling to -1 to 1. Winds SW at 25 to 40 km/h. Chance of rain 100%. 2-3cm of snow expected. Winds could occasionally gust over 65 km/h.
p80
sVperiod
p81
I4
sVpop
p82
V100
p83
sVfcttext
p84
VCloudy with a mixture of rain and snow in the morning. Becoming partly cloudy in the afternoon. High 41F. Winds SW at 15 to 25 mph. Chance of rain 100%. 1 to 3 inches of snow expected. Winds could occasionally gust over 40 mph.
p85
sVicon
p86
Vsnow
p87
sa(dp88
Vtitle
p89
VSaturday Night
p90
sVicon_url
p91
Vhttp://icons.wxug.com/i/c/k/nt_partlycloudy.gif
p92
sVfcttext_metric
p93
VSome clouds early will give way to generally clear conditions overnight. Low -7C. Winds SSW at 15 to 25 km/h.
p94
sVperiod
p95
I5
sVpop
p96
V20
p97
sVfcttext
p98
VPartly cloudy skies. Low near 20F. Winds SSW at 10 to 15 mph.
p99
sVicon
p100
Vnt_partlycloudy
p101
sa(dp102
Vtitle
p103
VSunday
p104
sVicon_url
p105
Vhttp://icons.wxug.com/i/c/k/clear.gif
p106
sVfcttext_metric
p107
VA mainly sunny sky. High near 10C. Winds light and variable.
p108
sVperiod
p109
I6
sVpop
p110
V0
p111
sVfcttext
p112
VMainly sunny. High 49F. Winds light and variable.
p113
sVicon
p114
Vclear
p115
sa(dp116
Vtitle
p117
VSunday Night
p118
sVicon_url
p119
Vhttp://icons.wxug.com/i/c/k/nt_clear.gif
p120
sVfcttext_metric
p121
VClear to partly cloudy. Low -2C. Winds light and variable.
p122
sVperiod
p123
I7
sVpop
p124
V0
p125
sVfcttext
p126
VMainly clear early, then a few clouds later on. Low 27F. Winds light and variable.
p127
sVicon
p128
Vnt_clear
p129
sassVsimpleforecast
p130
(dp131
Vforecastday
p132
(lp133
(dp134
Vavehumidity
p135
I91
sVmaxhumidity
p136
I0
sVavewind
p137
(dp138
Vkph
p139
I0
sVdegrees
p140
I0
sVdir
p141
V
p142
sVmph
p143
I0
ssVicon_url
p144
Vhttp://icons.wxug.com/i/c/k/snow.gif
p145
sVsnow_allday
p146
(dp147
Vcm
p148
F0.5
sVin
p149
F0.2
ssVmaxwind
p150
(dp151
Vkph
p152
I0
sVdegrees
p153
I0
sVdir
p154
g142
sVmph
p155
I0
ssVminhumidity
p156
I0
sVperiod
p157
I1
sVpop
p158
I90
sVskyicon
p159
g142
sVhigh
p160
(dp161
Vfahrenheit
p162
g142
sVcelsius
p163
g142
ssVqpf_night
p164
(dp165
Vmm
p166
I6
sVin
p167
F0.24
ssVqpf_allday
p168
(dp169
Vmm
p170
I6
sVin
p171
F0.24
ssVlow
p172
(dp173
Vfahrenheit
p174
V33
p175
sVcelsius
p176
V1
p177
ssVsnow_night
p178
(dp179
Vcm
p180
F0.5
sVin
p181
F0.2
ssVdate
p182
(dp183
Vtz_short
p184
VPDT
p185
sVweekday_short
p186
VThu
p187
sVisdst
p188
V1
p189
sVmonthname
p190
VApril
p191
sVhour
p192
I19
sVmin
p193
V00
p194
sVampm
p195
VPM
p196
sVtz_long
p197
VAmerica/Los_Angeles
p198
sVmonth
p199
I4
sVepoch
p200
V1522980000
p201
sVsec
p202
I0
sVweekday
p203
VThursday
p204
sVpretty
p205
V7:00 PM PDT on April 05, 2018
p206
sVyear
p207
I2018
sVyday
p208
I94
sVday
p209
I5
sVmonthname_short
p210
VApr
p211
ssVsnow_day
p212
(dp213
Vcm
p214
NsVin
p215
NssVqpf_day
p216
(dp217
Vmm
p218
NsVin
p219
NssVconditions
p220
VSnow
p221
sVicon
p222
Vsnow
p223
sa(dp224
Vavehumidity
p225
I94
sVmaxhumidity
p226
I0
sVavewind
p227
(dp228
Vkph
p229
I21
sVdegrees
p230
I211
sVdir
p231
VSSW
p232
sVmph
p233
I13
ssVicon_url
p234
Vhttp://icons.wxug.com/i/c/k/rain.gif
p235
sVsnow_allday
p236
(dp237
Vcm
p238
F0.0
sVin
p239
F0.0
ssVmaxwind
p240
(dp241
Vkph
p242
I32
sVdegrees
p243
I211
sVdir
p244
VSSW
p245
sVmph
p246
I20
ssVminhumidity
p247
I0
sVperiod
p248
I2
sVpop
p249
I100
sVskyicon
p250
g142
sVhigh
p251
(dp252
Vfahrenheit
p253
V40
p254
sVcelsius
p255
V4
p256
ssVqpf_night
p257
(dp258
Vmm
p259
I50
sVin
p260
F1.95
ssVqpf_allday
p261
(dp262
Vmm
p263
I77
sVin
p264
F3.02
ssVlow
p265
(dp266
Vfahrenheit
p267
V37
p268
sVcelsius
p269
V3
p270
ssVsnow_night
p271
(dp272
Vcm
p273
F0.0
sVin
p274
F0.0
ssVdate
p275
(dp276
Vtz_short
p277
VPDT
p278
sVweekday_short
p279
VFri
p280
sVisdst
p281
V1
p282
sVmonthname
p283
VApril
p284
sVhour
p285
I19
sVmin
p286
V00
p287
sVampm
p288
VPM
p289
sVtz_long
p290
VAmerica/Los_Angeles
p291
sVmonth
p292
I4
sVepoch
p293
V1523066400
p294
sVsec
p295
I0
sVweekday
p296
VFriday
p297
sVpretty
p298
V7:00 PM PDT on April 06, 2018
p299
sVyear
p300
I2018
sVyday
p301
I95
sVday
p302
I6
sVmonthname_short
p303
VApr
p304
ssVsnow_day
p305
(dp306
Vcm
p307
F0.0
sVin
p308
F0.0
ssVqpf_day
p309
(dp310
Vmm
p311
I27
sVin
p312
F1.07
ssVconditions
p313
VRain
p314
sVicon
p315
Vrain
p316
sa(dp317
Vavehumidity
p318
I77
sVmaxhumidity
p319
I0
sVavewind
p320
(dp321
Vkph
p322
I29
sVdegrees
p323
I228
sVdir
p324
VSW
p325
sVmph
p326
I18
ssVicon_url
p327
Vhttp://icons.wxug.com/i/c/k/snow.gif
p328
sVsnow_allday
p329
(dp330
Vcm
p331
F3.0
sVin
p332
F1.2
ssVmaxwind
p333
(dp334
Vkph
p335
I40
sVdegrees
p336
I228
sVdir
p337
VSW
p338
sVmph
p339
I25
ssVminhumidity
p340
I0
sVperiod
p341
I3
sVpop
p342
I100
sVskyicon
p343
g142
sVhigh
p344
(dp345
Vfahrenheit
p346
V41
p347
sVcelsius
p348
V5
p349
ssVqpf_night
p350
(dp351
Vmm
p352
I0
sVin
p353
F0.0
ssVqpf_allday
p354
(dp355
Vmm
p356
I15
sVin
p357
F0.58
ssVlow
p358
(dp359
Vfahrenheit
p360
V20
p361
sVcelsius
p362
V-7
p363
ssVsnow_night
p364
(dp365
Vcm
p366
F0.0
sVin
p367
F0.0
ssVdate
p368
(dp369
Vtz_short
p370
VPDT
p371
sVweekday_short
p372
VSat
p373
sVisdst
p374
V1
p375
sVmonthname
p376
VApril
p377
sVhour
p378
I19
sVmin
p379
V00
p380
sVampm
p381
VPM
p382
sVtz_long
p383
VAmerica/Los_Angeles
p384
sVmonth
p385
I4
sVepoch
p386
V1523152800
p387
sVsec
p388
I0
sVweekday
p389
VSaturday
p390
sVpretty
p391
V7:00 PM PDT on April 07, 2018
p392
sVyear
p393
I2018
sVyday
p394
I96
sVday
p395
I7
sVmonthname_short
p396
VApr
p397
ssVsnow_day
p398
(dp399
Vcm
p400
F3.0
sVin
p401
F1.2
ssVqpf_day
p402
(dp403
Vmm
p404
I15
sVin
p405
F0.58
ssVconditions
p406
VSnow
p407
sVicon
p408
Vsnow
p409
sa(dp410
Vavehumidity
p411
I45
sVmaxhumidity
p412
I0
sVavewind
p413
(dp414
Vkph
p415
I8
sVdegrees
p416
I246
sVdir
p417
VWSW
p418
sVmph
p419
I5
ssVicon_url
p420
Vhttp://icons.wxug.com/i/c/k/clear.gif
p421
sVsnow_allday
p422
(dp423
Vcm
p424
F0.0
sVin
p425
F0.0
ssVmaxwind
p426
(dp427
Vkph
p428
I16
sVdegrees
p429
I246
sVdir
p430
VWSW
p431
sVmph
p432
I10
ssVminhumidity
p433
I0
sVperiod
p434
I4
sVpop
p435
I0
sVskyicon
p436
g142
sVhigh
p437
(dp438
Vfahrenheit
p439
V49
p440
sVcelsius
p441
V9
p442
ssVqpf_night
p443
(dp444
Vmm
p445
I0
sVin
p446
F0.0
ssVqpf_allday
p447
(dp448
Vmm
p449
I0
sVin
p450
F0.0
ssVlow
p451
(dp452
Vfahrenheit
p453
V27
p454
sVcelsius
p455
V-3
p456
ssVsnow_night
p457
(dp458
Vcm
p459
F0.0
sVin
p460
F0.0
ssVdate
p461
(dp462
Vtz_short
p463
VPDT
p464
sVweekday_short
p465
VSun
p466
sVisdst
p467
V1
p468
sVmonthname
p469
VApril
p470
sVhour
p471
I19
sVmin
p472
V00
p473
sVampm
p474
VPM
p475
sVtz_long
p476
VAmerica/Los_Angeles
p477
sVmonth
p478
I4
sVepoch
p479
V1523239200
p480
sVsec
p481
I0
sVweekday
p482
VSunday
p483
sVpretty
p484
V7:00 PM PDT on April 08, 2018
p485
sVyear
p486
I2018
sVyday
p487
I97
sVday
p488
I8
sVmonthname_short
p489
VApr
p490
ssVsnow_day
p491
(dp492
Vcm
p493
F0.0
sVin
p494
F0.0
ssVqpf_day
p495
(dp496
Vmm
p497
I0
sVin
p498
F0.0
ssVconditions
p499
VClear
p500
sVicon
p501
Vclear
p502
sasss.