(dp0
Vresponse
p1
(dp2
VtermsofService
p3
Vhttp://www.wunderground.com/weather/api/d/terms.html
p4
sVversion
p5
V0.1
p6
sVfeatures
p7
(dp8
Vforecast
p9
I1
sssVforecast
p10
(dp11
Vtxt_forecast
p12
(dp13
Vdate
p14
V3:24 PM PDT
p15
sVforecastday
p16
(lp17
(dp18
Vtitle
p19
VMonday
p20
sVicon_url
p21
Vhttp://icons.wxug.com/i/c/k/clear.gif
p22
sVfcttext_metric
p23
VMainly clear. Low -5C.
p24
sVperiod
p25
I0
sVpop
p26
V0
p27
sVfcttext
p28
VMostly clear. Lows overnight in the low 20s.
p29
sVicon
p30
Vclear
p31
sa(dp32
Vtitle
p33
VMonday Night
p34
sVicon_url
p35
Vhttp://icons.wxug.com/i/c/k/nt_clear.gif
p36
sVfcttext_metric
p37
VMostly clear. Low around -5C. Winds NE at 10 to 15 km/h.
p38
sVperiod
p39
I1
sVpop
p40
V0
p41
sVfcttext
p42
VMostly clear. Low 23F. Winds NE at 5 to 10 mph.
p43
sVicon
p44
Vnt_clear
p45
sa(dp46
Vtitle
p47
VTuesday
p48
sVicon_url
p49
Vhttp://icons.wxug.com/i/c/k/partlycloudy.gif
p50
sVfcttext_metric
p51
VPartly cloudy skies. High 12C. Winds SW at 15 to 25 km/h.
p52
sVperiod
p53
I2
sVpop
p54
V0
p55
sVfcttext
p56
VIntervals of clouds and sunshine. High 53F. Winds SW at 10 to 15 mph.
p57
sVicon
p58
Vpartlycloudy
p59
sa(dp60
Vtitle
p61
VTuesday Night
p62
sVicon_url
p63
Vhttp://icons.wxug.com/i/c/k/nt_mostlycloudy.gif
p64
sVfcttext_metric
p65
VPartly cloudy skies early will become overcast later during the night. Low -2C. Winds W at 10 to 15 km/h.
p66
sVperiod
p67
I3
sVpop
p68
V0
p69
sVfcttext
p70
VPartly cloudy skies in the evening, then becoming cloudy overnight. Low 28F. Winds W at 10 to 15 mph.
p71
sVicon
p72
Vnt_mostlycloudy
p73
sa(dp74
Vtitle
p75
VWednesday
p76
sVicon_url
p77
Vhttp://icons.wxug.com/i/c/k/cloudy.gif
p78
sVfcttext_metric
p79
VOvercast. High 12C. Winds WSW at 15 to 25 km/h.
p80
sVperiod
p81
I4
sVpop
p82
V0
p83
sVfcttext
p84
VCloudy. High 53F. Winds WSW at 10 to 15 mph.
p85
sVicon
p86
Vcloudy
p87
sa(dp88
Vtitle
p89
VWednesday Night
p90
sVicon_url
p91
Vhttp://icons.wxug.com/i/c/k/nt_cloudy.gif
p92
sVfcttext_metric
p93
VCloudy skies. Low 2C. Winds WSW at 10 to 15 km/h.
p94
sVperiod
p95
I5
sVpop
p96
V0
p97
sVfcttext
p98
VCloudy skies. Low near 35F. Winds WSW at 5 to 10 mph.
p99
sVicon
p100
Vnt_cloudy
p101
sa(dp102
Vtitle
p103
VThursday
p104
sVicon_url
p105
Vhttp://icons.wxug.com/i/c/k/cloudy.gif
p106
sVfcttext_metric
p107
VCloudy. High 11C. Winds SW at 15 to 25 km/h.
p108
sVperiod
p109
I6
sVpop
p110
V10
p111
sVfcttext
p112
VCloudy. High 53F. Winds SW at 10 to 15 mph.
p113
sVicon
p114
Vcloudy
p115
sa(dp116
Vtitle
p117
VThursday Night
p118
sVicon_url
p119
Vhttp://icons.wxug.com/i/c/k/nt_chancerain.gif
p120
sVfcttext_metric
p121
VCloudy skies early with showers later at night. Low 1C. Winds WSW at 10 to 15 km/h. Chance of rain 70%.
p122
sVperiod
p123
I7
sVpop
p124
V70
p125
sVfcttext
p126
VCloudy skies early with showers later at night. Low around 35F. Winds WSW at 10 to 15 mph. Chance of rain 70%.
p127
sVicon
p128
Vnt_chancerain
p129
sassVsimpleforecast
p130
(dp131
Vforecastday
p132
(lp133
(dp134
Vavehumidity
p135
I47
sVmaxhumidity
p136
I0
sVavewind
p137
(dp138
Vkph
p139
I10
sVdegrees
p140
I0
sVdir
p141
VWest
p142
sVmph
p143
I6
ssVicon_url
p144
Vhttp://icons.wxug.com/i/c/k/clear.gif
p145
sVsnow_allday
p146
(dp147
Vcm
p148
F0.0
sVin
p149
F0.0
ssVmaxwind
p150
(dp151
Vkph
p152
I26
sVdegrees
p153
I0
sVdir
p154
VWest
p155
sVmph
p156
I16
ssVminhumidity
p157
I0
sVperiod
p158
I1
sVpop
p159
I0
sVskyicon
p160
V
p161
sVhigh
p162
(dp163
Vfahrenheit
p164
V64
p165
sVcelsius
p166
V17
p167
ssVqpf_night
p168
(dp169
Vmm
p170
I0
sVin
p171
F0.0
ssVqpf_allday
p172
(dp173
Vmm
p174
I0
sVin
p175
F0.0
ssVlow
p176
(dp177
Vfahrenheit
p178
V23
p179
sVcelsius
p180
V-5
p181
ssVsnow_night
p182
(dp183
Vcm
p184
F0.0
sVin
p185
F0.0
ssVdate
p186
(dp187
Vtz_short
p188
VPDT
p189
sVweekday_short
p190
VMon
p191
sVisdst
p192
V1
p193
sVmonthname
p194
VApril
p195
sVhour
p196
I19
sVmin
p197
V00
p198
sVampm
p199
VPM
p200
sVtz_long
p201
VAmerica/Los_Angeles
p202
sVmonth
p203
I4
sVepoch
p204
V1522720800
p205
sVsec
p206
I0
sVweekday
p207
VMonday
p208
sVpretty
p209
V7:00 PM PDT on April 02, 2018
p210
sVyear
p211
I2018
sVyday
p212
I91
sVday
p213
I2
sVmonthname_short
p214
VApr
p215
ssVsnow_day
p216
(dp217
Vcm
p218
NsVin
p219
NssVqpf_day
p220
(dp221
Vmm
p222
NsVin
p223
NssVconditions
p224
VClear
p225
sVicon
p226
Vclear
p227
sa(dp228
Vavehumidity
p229
I41
sVmaxhumidity
p230
I0
sVavewind
p231
(dp232
Vkph
p233
I19
sVdegrees
p234
I227
sVdir
p235
VSW
p236
sVmph
p237
I12
ssVicon_url
p238
Vhttp://icons.wxug.com/i/c/k/partlycloudy.gif
p239
sVsnow_allday
p240
(dp241
Vcm
p242
F0.0
sVin
p243
F0.0
ssVmaxwind
p244
(dp245
Vkph
p246
I24
sVdegrees
p247
I227
sVdir
p248
VSW
p249
sVmph
p250
I15
ssVminhumidity
p251
I0
sVperiod
p252
I2
sVpop
p253
I0
sVskyicon
p254
g161
sVhigh
p255
(dp256
Vfahrenheit
p257
V53
p258
sVcelsius
p259
V12
p260
ssVqpf_night
p261
(dp262
Vmm
p263
I0
sVin
p264
F0.0
ssVqpf_allday
p265
(dp266
Vmm
p267
I0
sVin
p268
F0.0
ssVlow
p269
(dp270
Vfahrenheit
p271
V28
p272
sVcelsius
p273
V-2
p274
ssVsnow_night
p275
(dp276
Vcm
p277
F0.0
sVin
p278
F0.0
ssVdate
p279
(dp280
Vtz_short
p281
VPDT
p282
sVweekday_short
p283
VTue
p284
sVisdst
p285
V1
p286
sVmonthname
p287
VApril
p288
sVhour
p289
I19
sVmin
p290
V00
p291
sVampm
p292
VPM
p293
sVtz_long
p294
VAmerica/Los_Angeles
p295
sVmonth
p296
I4
sVepoch
p297
V1522807200
p298
sVsec
p299
I0
sVweekday
p300
VTuesday
p301
sVpretty
p302
V7:00 PM PDT on April 03, 2018
p303
sVyear
p304
I2018
sVyday
p305
I92
sVday
p306
I3
sVmonthname_short
p307
VApr
p308
ssVsnow_day
p309
(dp310
Vcm
p311
F0.0
sVin
p312
F0.0
ssVqpf_day
p313
(dp314
Vmm
p315
I0
sVin
p316
F0.0
ssVconditions
p317
VPartly Cloudy
p318
sVicon
p319
Vpartlycloudy
p320
sa(dp321
Vavehumidity
p322
I41
sVmaxhumidity
p323
I0
sVavewind
p324
(dp325
Vkph
p326
I19
sVdegrees
p327
I246
sVdir
p328
VWSW
p329
sVmph
p330
I12
ssVicon_url
p331
Vhttp://icons.wxug.com/i/c/k/cloudy.gif
p332
sVsnow_allday
p333
(dp334
Vcm
p335
F0.0
sVin
p336
F0.0
ssVmaxwind
p337
(dp338
Vkph
p339
I24
sVdegrees
p340
I246
sVdir
p341
VWSW
p342
sVmph
p343
I15
ssVminhumidity
p344
I0
sVperiod
p345
I3
sVpop
p346
I0
sVskyicon
p347
g161
sVhigh
p348
(dp349
Vfahrenheit
p350
V53
p351
sVcelsius
p352
V12
p353
ssVqpf_night
p354
(dp355
Vmm
p356
I0
sVin
p357
F0.0
ssVqpf_allday
p358
(dp359
Vmm
p360
I0
sVin
p361
F0.0
ssVlow
p362
(dp363
Vfahrenheit
p364
V35
p365
sVcelsius
p366
V2
p367
ssVsnow_night
p368
(dp369
Vcm
p370
F0.0
sVin
p371
F0.0
ssVdate
p372
(dp373
Vtz_short
p374
VPDT
p375
sVweekday_short
p376
VWed
p377
sVisdst
p378
V1
p379
sVmonthname
p380
VApril
p381
sVhour
p382
I19
sVmin
p383
V00
p384
sVampm
p385
VPM
p386
sVtz_long
p387
VAmerica/Los_Angeles
p388
sVmonth
p389
I4
sVepoch
p390
V1522893600
p391
sVsec
p392
I0
sVweekday
p393
VWednesday
p394
sVpretty
p395
V7:00 PM PDT on April 04, 2018
p396
sVyear
p397
I2018
sVyday
p398
I93
sVday
p399
I4
sVmonthname_short
p400
VApr
p401
ssVsnow_day
p402
(dp403
Vcm
p404
F0.0
sVin
p405
F0.0
ssVqpf_day
p406
(dp407
Vmm
p408
I0
sVin
p409
F0.0
ssVconditions
p410
VOvercast
p411
sVicon
p412
Vcloudy
p413
sa(dp414
Vavehumidity
p415
I39
sVmaxhumidity
p416
I0
sVavewind
p417
(dp418
Vkph
p419
I19
sVdegrees
p420
I234
sVdir
p421
VSW
p422
sVmph
p423
I12
ssVicon_url
p424
Vhttp://icons.wxug.com/i/c/k/cloudy.gif
p425
sVsnow_allday
p426
(dp427
Vcm
p428
F0.0
sVin
p429
F0.0
ssVmaxwind
p430
(dp431
Vkph
p432
I24
sVdegrees
p433
I234
sVdir
p434
VSW
p435
sVmph
p436
I15
ssVminhumidity
p437
I0
sVperiod
p438
I4
sVpop
p439
I10
sVskyicon
p440
g161
sVhigh
p441
(dp442
Vfahrenheit
p443
V53
p444
sVcelsius
p445
V12
p446
ssVqpf_night
p447
(dp448
Vmm
p449
I1
sVin
p450
F0.03
ssVqpf_allday
p451
(dp452
Vmm
p453
I1
sVin
p454
F0.03
ssVlow
p455
(dp456
Vfahrenheit
p457
V35
p458
sVcelsius
p459
V2
p460
ssVsnow_night
p461
(dp462
Vcm
p463
F0.0
sVin
p464
F0.0
ssVdate
p465
(dp466
Vtz_short
p467
VPDT
p468
sVweekday_short
p469
VThu
p470
sVisdst
p471
V1
p472
sVmonthname
p473
VApril
p474
sVhour
p475
I19
sVmin
p476
V00
p477
sVampm
p478
VPM
p479
sVtz_long
p480
VAmerica/Los_Angeles
p481
sVmonth
p482
I4
sVepoch
p483
V1522980000
p484
sVsec
p485
I0
sVweekday
p486
VThursday
p487
sVpretty
p488
V7:00 PM PDT on April 05, 2018
p489
sVyear
p490
I2018
sVyday
p491
I94
sVday
p492
I5
sVmonthname_short
p493
VApr
p494
ssVsnow_day
p495
(dp496
Vcm
p497
F0.0
sVin
p498
F0.0
ssVqpf_day
p499
(dp500
Vmm
p501
I0
sVin
p502
F0.0
ssVconditions
p503
VOvercast
p504
sVicon
p505
Vcloudy
p506
sasss.