(dp0
Vresponse
p1
(dp2
VtermsofService
p3
Vhttp://www.wunderground.com/weather/api/d/terms.html
p4
sVversion
p5
V0.1
p6
sVfeatures
p7
(dp8
Vforecast
p9
I1
sssVforecast
p10
(dp11
Vtxt_forecast
p12
(dp13
Vdate
p14
V6:34 PM PDT
p15
sVforecastday
p16
(lp17
(dp18
Vtitle
p19
VThursday
p20
sVicon_url
p21
Vhttp://icons.wxug.com/i/c/k/chancerain.gif
p22
sVfcttext_metric
p23
VLight rain developing late. Low 1C.
p24
sVperiod
p25
I0
sVpop
p26
V70
p27
sVfcttext
p28
VLight rain developing late. Lows overnight in the mid 30s.
p29
sVicon
p30
Vchancerain
p31
sa(dp32
Vtitle
p33
VThursday Night
p34
sVicon_url
p35
Vhttp://icons.wxug.com/i/c/k/nt_chancerain.gif
p36
sVfcttext_metric
p37
VCloudy skies with periods of light rain late. Low 1C. WSW winds at 25 to 40 km/h, decreasing to 10 to 15 km/h. Chance of rain 70%.
p38
sVperiod
p39
I1
sVpop
p40
V70
p41
sVfcttext
p42
VCloudy skies with periods of light rain late. Low 34F. WSW winds at 15 to 25 mph, decreasing to 5 to 10 mph. Chance of rain 70%.
p43
sVicon
p44
Vnt_chancerain
p45
sa(dp46
Vtitle
p47
VFriday
p48
sVicon_url
p49
Vhttp://icons.wxug.com/i/c/k/rain.gif
p50
sVfcttext_metric
p51
VPeriods of rain. High 6C. Winds WSW at 15 to 30 km/h. Chance of rain 90%. Rainfall near 6mm.
p52
sVperiod
p53
I2
sVpop
p54
V90
p55
sVfcttext
p56
VPeriods of rain. High 43F. Winds WSW at 10 to 20 mph. Chance of rain 90%. Rainfall around a quarter of an inch.
p57
sVicon
p58
Vrain
p59
sa(dp60
Vtitle
p61
VFriday Night
p62
sVicon_url
p63
Vhttp://icons.wxug.com/i/c/k/nt_rain.gif
p64
sVfcttext_metric
p65
VPeriods of rain. Becoming windy late. Low 4C. Winds WSW at 30 to 50 km/h. Chance of rain 100%. Rainfall around 12mm.
p66
sVperiod
p67
I3
sVpop
p68
V100
p69
sVfcttext
p70
VRain. Becoming windy late. Low 38F. Winds WSW at 20 to 30 mph. Chance of rain 100%. Rainfall near a half an inch.
p71
sVicon
p72
Vnt_rain
p73
sa(dp74
Vtitle
p75
VSaturday
p76
sVicon_url
p77
Vhttp://icons.wxug.com/i/c/k/snow.gif
p78
sVfcttext_metric
p79
VPeriods of rain and snow tapering off in the morning. Partly cloudy and windy in the afternoon. Morning high of 7C with temps falling to 0 to 2. Winds WSW at 30 to 50 km/h. Chance of rain 100%. Winds could occasionally gust over 65 km/h.
p80
sVperiod
p81
I4
sVpop
p82
V100
p83
sVfcttext
p84
VPeriods of rain and snow in the morning. Becoming partly cloudy and windy in the afternoon. Morning high of 44F with temps falling to near freezing. Winds WSW at 20 to 30 mph. Chance of rain 100%. Winds could occasionally gust over 40 mph.
p85
sVicon
p86
Vsnow
p87
sa(dp88
Vtitle
p89
VSaturday Night
p90
sVicon_url
p91
Vhttp://icons.wxug.com/i/c/k/nt_partlycloudy.gif
p92
sVfcttext_metric
p93
VClear to partly cloudy. Low -6C. Winds W at 25 to 40 km/h. Winds could occasionally gust over 65 km/h.
p94
sVperiod
p95
I5
sVpop
p96
V10
p97
sVfcttext
p98
VA few clouds. Low 21F. Winds W at 15 to 25 mph. Winds could occasionally gust over 40 mph.
p99
sVicon
p100
Vnt_partlycloudy
p101
sa(dp102
Vtitle
p103
VSunday
p104
sVicon_url
p105
Vhttp://icons.wxug.com/i/c/k/clear.gif
p106
sVfcttext_metric
p107
VA mainly sunny sky. High 11C. Winds WNW at 10 to 15 km/h.
p108
sVperiod
p109
I6
sVpop
p110
V0
p111
sVfcttext
p112
VMainly sunny. High 51F. Winds WNW at 5 to 10 mph.
p113
sVicon
p114
Vclear
p115
sa(dp116
Vtitle
p117
VSunday Night
p118
sVicon_url
p119
Vhttp://icons.wxug.com/i/c/k/nt_clear.gif
p120
sVfcttext_metric
p121
VMostly clear. Low -1C. Winds light and variable.
p122
sVperiod
p123
I7
sVpop
p124
V0
p125
sVfcttext
p126
VMostly clear. Low around 30F. Winds light and variable.
p127
sVicon
p128
Vnt_clear
p129
sassVsimpleforecast
p130
(dp131
Vforecastday
p132
(lp133
(dp134
Vavehumidity
p135
I84
sVmaxhumidity
p136
I0
sVavewind
p137
(dp138
Vkph
p139
I8
sVdegrees
p140
I0
sVdir
p141
VWSW
p142
sVmph
p143
I5
ssVicon_url
p144
Vhttp://icons.wxug.com/i/c/k/chancerain.gif
p145
sVsnow_allday
p146
(dp147
Vcm
p148
F0.0
sVin
p149
F0.0
ssVmaxwind
p150
(dp151
Vkph
p152
I30
sVdegrees
p153
I0
sVdir
p154
VWSW
p155
sVmph
p156
I18
ssVminhumidity
p157
I0
sVperiod
p158
I1
sVpop
p159
I70
sVskyicon
p160
V
p161
sVhigh
p162
(dp163
Vfahrenheit
p164
V66
p165
sVcelsius
p166
V18
p167
ssVqpf_night
p168
(dp169
Vmm
p170
I2
sVin
p171
F0.06
ssVqpf_allday
p172
(dp173
Vmm
p174
I2
sVin
p175
F0.06
ssVlow
p176
(dp177
Vfahrenheit
p178
V34
p179
sVcelsius
p180
V1
p181
ssVsnow_night
p182
(dp183
Vcm
p184
F0.0
sVin
p185
F0.0
ssVdate
p186
(dp187
Vtz_short
p188
VPDT
p189
sVweekday_short
p190
VThu
p191
sVisdst
p192
V1
p193
sVmonthname
p194
VApril
p195
sVhour
p196
I19
sVmin
p197
V00
p198
sVampm
p199
VPM
p200
sVtz_long
p201
VAmerica/Los_Angeles
p202
sVmonth
p203
I4
sVepoch
p204
V1522980000
p205
sVsec
p206
I0
sVweekday
p207
VThursday
p208
sVpretty
p209
V7:00 PM PDT on April 05, 2018
p210
sVyear
p211
I2018
sVyday
p212
I94
sVday
p213
I5
sVmonthname_short
p214
VApr
p215
ssVsnow_day
p216
(dp217
Vcm
p218
NsVin
p219
NssVqpf_day
p220
(dp221
Vmm
p222
NsVin
p223
NssVconditions
p224
VChance of Rain
p225
sVicon
p226
Vchancerain
p227
sa(dp228
Vavehumidity
p229
I95
sVmaxhumidity
p230
I0
sVavewind
p231
(dp232
Vkph
p233
I21
sVdegrees
p234
I245
sVdir
p235
VWSW
p236
sVmph
p237
I13
ssVicon_url
p238
Vhttp://icons.wxug.com/i/c/k/rain.gif
p239
sVsnow_allday
p240
(dp241
Vcm
p242
F0.0
sVin
p243
F0.0
ssVmaxwind
p244
(dp245
Vkph
p246
I32
sVdegrees
p247
I245
sVdir
p248
VWSW
p249
sVmph
p250
I20
ssVminhumidity
p251
I0
sVperiod
p252
I2
sVpop
p253
I90
sVskyicon
p254
g161
sVhigh
p255
(dp256
Vfahrenheit
p257
V43
p258
sVcelsius
p259
V6
p260
ssVqpf_night
p261
(dp262
Vmm
p263
I18
sVin
p264
F0.69
ssVqpf_allday
p265
(dp266
Vmm
p267
I26
sVin
p268
F1.03
ssVlow
p269
(dp270
Vfahrenheit
p271
V38
p272
sVcelsius
p273
V3
p274
ssVsnow_night
p275
(dp276
Vcm
p277
F0.0
sVin
p278
F0.0
ssVdate
p279
(dp280
Vtz_short
p281
VPDT
p282
sVweekday_short
p283
VFri
p284
sVisdst
p285
V1
p286
sVmonthname
p287
VApril
p288
sVhour
p289
I19
sVmin
p290
V00
p291
sVampm
p292
VPM
p293
sVtz_long
p294
VAmerica/Los_Angeles
p295
sVmonth
p296
I4
sVepoch
p297
V1523066400
p298
sVsec
p299
I0
sVweekday
p300
VFriday
p301
sVpretty
p302
V7:00 PM PDT on April 06, 2018
p303
sVyear
p304
I2018
sVyday
p305
I95
sVday
p306
I6
sVmonthname_short
p307
VApr
p308
ssVsnow_day
p309
(dp310
Vcm
p311
F0.0
sVin
p312
F0.0
ssVqpf_day
p313
(dp314
Vmm
p315
I9
sVin
p316
F0.34
ssVconditions
p317
VRain
p318
sVicon
p319
Vrain
p320
sa(dp321
Vavehumidity
p322
I74
sVmaxhumidity
p323
I0
sVavewind
p324
(dp325
Vkph
p326
I35
sVdegrees
p327
I239
sVdir
p328
VWSW
p329
sVmph
p330
I22
ssVicon_url
p331
Vhttp://icons.wxug.com/i/c/k/snow.gif
p332
sVsnow_allday
p333
(dp334
Vcm
p335
F0.0
sVin
p336
F0.0
ssVmaxwind
p337
(dp338
Vkph
p339
I48
sVdegrees
p340
I239
sVdir
p341
VWSW
p342
sVmph
p343
I30
ssVminhumidity
p344
I0
sVperiod
p345
I3
sVpop
p346
I100
sVskyicon
p347
g161
sVhigh
p348
(dp349
Vfahrenheit
p350
V44
p351
sVcelsius
p352
V7
p353
ssVqpf_night
p354
(dp355
Vmm
p356
I0
sVin
p357
F0.0
ssVqpf_allday
p358
(dp359
Vmm
p360
I6
sVin
p361
F0.25
ssVlow
p362
(dp363
Vfahrenheit
p364
V21
p365
sVcelsius
p366
V-6
p367
ssVsnow_night
p368
(dp369
Vcm
p370
F0.0
sVin
p371
F0.0
ssVdate
p372
(dp373
Vtz_short
p374
VPDT
p375
sVweekday_short
p376
VSat
p377
sVisdst
p378
V1
p379
sVmonthname
p380
VApril
p381
sVhour
p382
I19
sVmin
p383
V00
p384
sVampm
p385
VPM
p386
sVtz_long
p387
VAmerica/Los_Angeles
p388
sVmonth
p389
I4
sVepoch
p390
V1523152800
p391
sVsec
p392
I0
sVweekday
p393
VSaturday
p394
sVpretty
p395
V7:00 PM PDT on April 07, 2018
p396
sVyear
p397
I2018
sVyday
p398
I96
sVday
p399
I7
sVmonthname_short
p400
VApr
p401
ssVsnow_day
p402
(dp403
Vcm
p404
F0.0
sVin
p405
F0.0
ssVqpf_day
p406
(dp407
Vmm
p408
I6
sVin
p409
F0.25
ssVconditions
p410
VSnow
p411
sVicon
p412
Vsnow
p413
sa(dp414
Vavehumidity
p415
I44
sVmaxhumidity
p416
I0
sVavewind
p417
(dp418
Vkph
p419
I11
sVdegrees
p420
I285
sVdir
p421
VWNW
p422
sVmph
p423
I7
ssVicon_url
p424
Vhttp://icons.wxug.com/i/c/k/clear.gif
p425
sVsnow_allday
p426
(dp427
Vcm
p428
F0.0
sVin
p429
F0.0
ssVmaxwind
p430
(dp431
Vkph
p432
I16
sVdegrees
p433
I285
sVdir
p434
VWNW
p435
sVmph
p436
I10
ssVminhumidity
p437
I0
sVperiod
p438
I4
sVpop
p439
I0
sVskyicon
p440
g161
sVhigh
p441
(dp442
Vfahrenheit
p443
V51
p444
sVcelsius
p445
V11
p446
ssVqpf_night
p447
(dp448
Vmm
p449
I0
sVin
p450
F0.0
ssVqpf_allday
p451
(dp452
Vmm
p453
I0
sVin
p454
F0.0
ssVlow
p455
(dp456
Vfahrenheit
p457
V30
p458
sVcelsius
p459
V-1
p460
ssVsnow_night
p461
(dp462
Vcm
p463
F0.0
sVin
p464
F0.0
ssVdate
p465
(dp466
Vtz_short
p467
VPDT
p468
sVweekday_short
p469
VSun
p470
sVisdst
p471
V1
p472
sVmonthname
p473
VApril
p474
sVhour
p475
I19
sVmin
p476
V00
p477
sVampm
p478
VPM
p479
sVtz_long
p480
VAmerica/Los_Angeles
p481
sVmonth
p482
I4
sVepoch
p483
V1523239200
p484
sVsec
p485
I0
sVweekday
p486
VSunday
p487
sVpretty
p488
V7:00 PM PDT on April 08, 2018
p489
sVyear
p490
I2018
sVyday
p491
I97
sVday
p492
I8
sVmonthname_short
p493
VApr
p494
ssVsnow_day
p495
(dp496
Vcm
p497
F0.0
sVin
p498
F0.0
ssVqpf_day
p499
(dp500
Vmm
p501
I0
sVin
p502
F0.0
ssVconditions
p503
VClear
p504
sVicon
p505
Vclear
p506
sasss.