(dp0
Vresponse
p1
(dp2
VtermsofService
p3
Vhttp://www.wunderground.com/weather/api/d/terms.html
p4
sVversion
p5
V0.1
p6
sVfeatures
p7
(dp8
Vforecast
p9
I1
sssVforecast
p10
(dp11
Vtxt_forecast
p12
(dp13
Vdate
p14
V6:09 PM PDT
p15
sVforecastday
p16
(lp17
(dp18
Vtitle
p19
VThursday
p20
sVicon_url
p21
Vhttp://icons.wxug.com/i/c/k/chancerain.gif
p22
sVfcttext_metric
p23
VChance of showers. Low 2C.
p24
sVperiod
p25
I0
sVpop
p26
V80
p27
sVfcttext
p28
VChance of showers. Lows overnight in the mid 30s.
p29
sVicon
p30
Vchancerain
p31
sa(dp32
Vtitle
p33
VThursday Night
p34
sVicon_url
p35
Vhttp://icons.wxug.com/i/c/k/nt_chancerain.gif
p36
sVfcttext_metric
p37
VRain showers early becoming a steady light rain overnight. Low 2C. Winds S at 15 to 25 km/h. Chance of rain 80%.
p38
sVperiod
p39
I1
sVpop
p40
V80
p41
sVfcttext
p42
VRain showers early becoming a steady light rain overnight. Low 36F. Winds S at 10 to 20 mph. Chance of rain 80%.
p43
sVicon
p44
Vnt_chancerain
p45
sa(dp46
Vtitle
p47
VFriday
p48
sVicon_url
p49
Vhttp://icons.wxug.com/i/c/k/rain.gif
p50
sVfcttext_metric
p51
VPeriods of rain. High 9C. Winds S at 15 to 25 km/h. Chance of rain 90%. Rainfall near 12mm.
p52
sVperiod
p53
I2
sVpop
p54
V90
p55
sVfcttext
p56
VPeriods of rain. High 48F. Winds S at 10 to 15 mph. Chance of rain 90%. Rainfall around a half an inch.
p57
sVicon
p58
Vrain
p59
sa(dp60
Vtitle
p61
VFriday Night
p62
sVicon_url
p63
Vhttp://icons.wxug.com/i/c/k/nt_rain.gif
p64
sVfcttext_metric
p65
VPeriods of rain. Low around 5C. Winds SSW at 15 to 30 km/h. Chance of rain 100%. Rainfall near 25mm.
p66
sVperiod
p67
I3
sVpop
p68
V100
p69
sVfcttext
p70
VRain. Low 41F. Winds SSW at 10 to 20 mph. Chance of rain 100%. Rainfall possibly over one inch.
p71
sVicon
p72
Vnt_rain
p73
sa(dp74
Vtitle
p75
VSaturday
p76
sVicon_url
p77
Vhttp://icons.wxug.com/i/c/k/snow.gif
p78
sVfcttext_metric
p79
VA steady rain in the morning tapering to showers and becoming mixed with snow in the afternoon. High 9C. Winds SW at 25 to 40 km/h. Chance of rain 100%. Winds could occasionally gust over 65 km/h.
p80
sVperiod
p81
I4
sVpop
p82
V100
p83
sVfcttext
p84
VOccasional rain. Some snow showers mixing in in the afternoon. High 48F. Winds SW at 15 to 25 mph. Chance of rain 100%. Winds could occasionally gust over 40 mph.
p85
sVicon
p86
Vsnow
p87
sa(dp88
Vtitle
p89
VSaturday Night
p90
sVicon_url
p91
Vhttp://icons.wxug.com/i/c/k/nt_partlycloudy.gif
p92
sVfcttext_metric
p93
VPartly cloudy skies. Low -6C. Winds SSW at 15 to 30 km/h.
p94
sVperiod
p95
I5
sVpop
p96
V20
p97
sVfcttext
p98
VPartly cloudy skies. Low 21F. Winds SSW at 10 to 20 mph.
p99
sVicon
p100
Vnt_partlycloudy
p101
sa(dp102
Vtitle
p103
VSunday
p104
sVicon_url
p105
Vhttp://icons.wxug.com/i/c/k/clear.gif
p106
sVfcttext_metric
p107
VA mainly sunny sky. High 14C. Winds WNW at 10 to 15 km/h.
p108
sVperiod
p109
I6
sVpop
p110
V0
p111
sVfcttext
p112
VMainly sunny. High 57F. Winds WNW at 5 to 10 mph.
p113
sVicon
p114
Vclear
p115
sa(dp116
Vtitle
p117
VSunday Night
p118
sVicon_url
p119
Vhttp://icons.wxug.com/i/c/k/nt_clear.gif
p120
sVfcttext_metric
p121
VA mostly clear sky. Low -4C. Winds light and variable.
p122
sVperiod
p123
I7
sVpop
p124
V10
p125
sVfcttext
p126
VMostly clear. Low near 25F. Winds light and variable.
p127
sVicon
p128
Vnt_clear
p129
sassVsimpleforecast
p130
(dp131
Vforecastday
p132
(lp133
(dp134
Vavehumidity
p135
I72
sVmaxhumidity
p136
I0
sVavewind
p137
(dp138
Vkph
p139
I0
sVdegrees
p140
I0
sVdir
p141
VNorth
p142
sVmph
p143
I0
ssVicon_url
p144
Vhttp://icons.wxug.com/i/c/k/chancerain.gif
p145
sVsnow_allday
p146
(dp147
Vcm
p148
F0.0
sVin
p149
F0.0
ssVmaxwind
p150
(dp151
Vkph
p152
I0
sVdegrees
p153
I0
sVdir
p154
V
p155
sVmph
p156
I0
ssVminhumidity
p157
I0
sVperiod
p158
I1
sVpop
p159
I80
sVskyicon
p160
g155
sVhigh
p161
(dp162
Vfahrenheit
p163
V54
p164
sVcelsius
p165
V12
p166
ssVqpf_night
p167
(dp168
Vmm
p169
I2
sVin
p170
F0.09
ssVqpf_allday
p171
(dp172
Vmm
p173
I2
sVin
p174
F0.09
ssVlow
p175
(dp176
Vfahrenheit
p177
V36
p178
sVcelsius
p179
V2
p180
ssVsnow_night
p181
(dp182
Vcm
p183
F0.0
sVin
p184
F0.0
ssVdate
p185
(dp186
Vtz_short
p187
VPDT
p188
sVweekday_short
p189
VThu
p190
sVisdst
p191
V1
p192
sVmonthname
p193
VApril
p194
sVhour
p195
I19
sVmin
p196
V00
p197
sVampm
p198
VPM
p199
sVtz_long
p200
VAmerica/Los_Angeles
p201
sVmonth
p202
I4
sVepoch
p203
V1522980000
p204
sVsec
p205
I0
sVweekday
p206
VThursday
p207
sVpretty
p208
V7:00 PM PDT on April 05, 2018
p209
sVyear
p210
I2018
sVyday
p211
I94
sVday
p212
I5
sVmonthname_short
p213
VApr
p214
ssVsnow_day
p215
(dp216
Vcm
p217
NsVin
p218
NssVqpf_day
p219
(dp220
Vmm
p221
NsVin
p222
NssVconditions
p223
VChance of Rain
p224
sVicon
p225
Vchancerain
p226
sa(dp227
Vavehumidity
p228
I90
sVmaxhumidity
p229
I0
sVavewind
p230
(dp231
Vkph
p232
I18
sVdegrees
p233
I190
sVdir
p234
VS
p235
sVmph
p236
I11
ssVicon_url
p237
Vhttp://icons.wxug.com/i/c/k/rain.gif
p238
sVsnow_allday
p239
(dp240
Vcm
p241
F0.0
sVin
p242
F0.0
ssVmaxwind
p243
(dp244
Vkph
p245
I24
sVdegrees
p246
I190
sVdir
p247
VS
p248
sVmph
p249
I15
ssVminhumidity
p250
I0
sVperiod
p251
I2
sVpop
p252
I90
sVskyicon
p253
g155
sVhigh
p254
(dp255
Vfahrenheit
p256
V48
p257
sVcelsius
p258
V9
p259
ssVqpf_night
p260
(dp261
Vmm
p262
I26
sVin
p263
F1.03
ssVqpf_allday
p264
(dp265
Vmm
p266
I36
sVin
p267
F1.43
ssVlow
p268
(dp269
Vfahrenheit
p270
V41
p271
sVcelsius
p272
V5
p273
ssVsnow_night
p274
(dp275
Vcm
p276
F0.0
sVin
p277
F0.0
ssVdate
p278
(dp279
Vtz_short
p280
VPDT
p281
sVweekday_short
p282
VFri
p283
sVisdst
p284
V1
p285
sVmonthname
p286
VApril
p287
sVhour
p288
I19
sVmin
p289
V00
p290
sVampm
p291
VPM
p292
sVtz_long
p293
VAmerica/Los_Angeles
p294
sVmonth
p295
I4
sVepoch
p296
V1523066400
p297
sVsec
p298
I0
sVweekday
p299
VFriday
p300
sVpretty
p301
V7:00 PM PDT on April 06, 2018
p302
sVyear
p303
I2018
sVyday
p304
I95
sVday
p305
I6
sVmonthname_short
p306
VApr
p307
ssVsnow_day
p308
(dp309
Vcm
p310
F0.0
sVin
p311
F0.0
ssVqpf_day
p312
(dp313
Vmm
p314
I10
sVin
p315
F0.39
ssVconditions
p316
VRain
p317
sVicon
p318
Vrain
p319
sa(dp320
Vavehumidity
p321
I73
sVmaxhumidity
p322
I0
sVavewind
p323
(dp324
Vkph
p325
I31
sVdegrees
p326
I221
sVdir
p327
VSW
p328
sVmph
p329
I19
ssVicon_url
p330
Vhttp://icons.wxug.com/i/c/k/snow.gif
p331
sVsnow_allday
p332
(dp333
Vcm
p334
F0.0
sVin
p335
F0.0
ssVmaxwind
p336
(dp337
Vkph
p338
I40
sVdegrees
p339
I221
sVdir
p340
VSW
p341
sVmph
p342
I25
ssVminhumidity
p343
I0
sVperiod
p344
I3
sVpop
p345
I100
sVskyicon
p346
g155
sVhigh
p347
(dp348
Vfahrenheit
p349
V48
p350
sVcelsius
p351
V9
p352
ssVqpf_night
p353
(dp354
Vmm
p355
I0
sVin
p356
F0.0
ssVqpf_allday
p357
(dp358
Vmm
p359
I8
sVin
p360
F0.31
ssVlow
p361
(dp362
Vfahrenheit
p363
V21
p364
sVcelsius
p365
V-6
p366
ssVsnow_night
p367
(dp368
Vcm
p369
F0.0
sVin
p370
F0.0
ssVdate
p371
(dp372
Vtz_short
p373
VPDT
p374
sVweekday_short
p375
VSat
p376
sVisdst
p377
V1
p378
sVmonthname
p379
VApril
p380
sVhour
p381
I19
sVmin
p382
V00
p383
sVampm
p384
VPM
p385
sVtz_long
p386
VAmerica/Los_Angeles
p387
sVmonth
p388
I4
sVepoch
p389
V1523152800
p390
sVsec
p391
I0
sVweekday
p392
VSaturday
p393
sVpretty
p394
V7:00 PM PDT on April 07, 2018
p395
sVyear
p396
I2018
sVyday
p397
I96
sVday
p398
I7
sVmonthname_short
p399
VApr
p400
ssVsnow_day
p401
(dp402
Vcm
p403
F0.0
sVin
p404
F0.0
ssVqpf_day
p405
(dp406
Vmm
p407
I8
sVin
p408
F0.31
ssVconditions
p409
VSnow
p410
sVicon
p411
Vsnow
p412
sa(dp413
Vavehumidity
p414
I49
sVmaxhumidity
p415
I0
sVavewind
p416
(dp417
Vkph
p418
I10
sVdegrees
p419
I285
sVdir
p420
VWNW
p421
sVmph
p422
I6
ssVicon_url
p423
Vhttp://icons.wxug.com/i/c/k/clear.gif
p424
sVsnow_allday
p425
(dp426
Vcm
p427
F0.0
sVin
p428
F0.0
ssVmaxwind
p429
(dp430
Vkph
p431
I16
sVdegrees
p432
I285
sVdir
p433
VWNW
p434
sVmph
p435
I10
ssVminhumidity
p436
I0
sVperiod
p437
I4
sVpop
p438
I0
sVskyicon
p439
g155
sVhigh
p440
(dp441
Vfahrenheit
p442
V57
p443
sVcelsius
p444
V14
p445
ssVqpf_night
p446
(dp447
Vmm
p448
I0
sVin
p449
F0.0
ssVqpf_allday
p450
(dp451
Vmm
p452
I0
sVin
p453
F0.0
ssVlow
p454
(dp455
Vfahrenheit
p456
V25
p457
sVcelsius
p458
V-4
p459
ssVsnow_night
p460
(dp461
Vcm
p462
F0.0
sVin
p463
F0.0
ssVdate
p464
(dp465
Vtz_short
p466
VPDT
p467
sVweekday_short
p468
VSun
p469
sVisdst
p470
V1
p471
sVmonthname
p472
VApril
p473
sVhour
p474
I19
sVmin
p475
V00
p476
sVampm
p477
VPM
p478
sVtz_long
p479
VAmerica/Los_Angeles
p480
sVmonth
p481
I4
sVepoch
p482
V1523239200
p483
sVsec
p484
I0
sVweekday
p485
VSunday
p486
sVpretty
p487
V7:00 PM PDT on April 08, 2018
p488
sVyear
p489
I2018
sVyday
p490
I97
sVday
p491
I8
sVmonthname_short
p492
VApr
p493
ssVsnow_day
p494
(dp495
Vcm
p496
F0.0
sVin
p497
F0.0
ssVqpf_day
p498
(dp499
Vmm
p500
I0
sVin
p501
F0.0
ssVconditions
p502
VClear
p503
sVicon
p504
Vclear
p505
sasss.